target datalayout = "e-m:e-p270:32:32-p271:32:32-p272:64:64-i64:64-i128:128-f80:128-n8:16:32:64-S128"
target triple = "x86_64-pc-linux-gnu"

%struct.jpeg_compress_struct = type { ptr, ptr, ptr, ptr, i32, i32, ptr, i32, i32, i32, i32, double, i32, i32, i32, ptr, [4 x ptr], [4 x ptr], [4 x ptr], [16 x i8], [16 x i8], [16 x i8], i32, ptr, i32, i32, i32, i32, i32, i32, i32, i32, i32, i8, i8, i8, i16, i16, i32, i32, i32, i32, i32, i32, i32, [4 x ptr], i32, i32, i32, [10 x i32], i32, i32, i32, i32, ptr, ptr, ptr, ptr, ptr, ptr, ptr, ptr, ptr, ptr, i32 }
%struct.jpeg_component_info = type { i32, i32, i32, i32, i32, i32, i32, i32, i32, i32, i32, i32, i32, i32, i32, i32, i32, i32, i32, ptr, ptr }
%struct.jpeg_comp_master = type { ptr, ptr, ptr, i32, i32, i32 }

; Function Attrs: nounwind uwtable
define internal void @expand_right_edge(ptr noundef %0, i32 noundef %1, i32 noundef %2, i32 noundef %3) #0 {
  %5 = alloca ptr, align 8
  %6 = alloca i32, align 4
  %7 = alloca i32, align 4
  %8 = alloca i32, align 4
  %9 = alloca ptr, align 8
  %10 = alloca i8, align 1
  %11 = alloca i32, align 4
  %12 = alloca i32, align 4
  %13 = alloca i32, align 4
  store ptr %0, ptr %5, align 8
  store i32 %1, ptr %6, align 4
  store i32 %2, ptr %7, align 4
  store i32 %3, ptr %8, align 4
  %14 = load i32, ptr %8, align 4
  %15 = load i32, ptr %7, align 4
  %16 = sub i32 %14, %15
  store i32 %16, ptr %13, align 4
  %17 = load i32, ptr %13, align 4
  %18 = icmp sgt i32 %17, 0
  br i1 %18, label %19, label %52

19:                                               ; preds = %4
  store i32 0, ptr %12, align 4
  br label %20

20:                                               ; preds = %48, %19
  %21 = load i32, ptr %12, align 4
  %22 = load i32, ptr %6, align 4
  %23 = icmp slt i32 %21, %22
  br i1 %23, label %24, label %51

24:                                               ; preds = %20
  %25 = load ptr, ptr %5, align 8
  %26 = load i32, ptr %12, align 4
  %27 = sext i32 %26 to i64
  %28 = getelementptr inbounds ptr, ptr %25, i64 %27
  %29 = load ptr, ptr %28, align 8
  %30 = load i32, ptr %7, align 4
  %31 = zext i32 %30 to i64
  %32 = getelementptr inbounds i8, ptr %29, i64 %31
  store ptr %32, ptr %9, align 8
  %33 = load ptr, ptr %9, align 8
  %34 = getelementptr inbounds i8, ptr %33, i64 -1
  %35 = load i8, ptr %34, align 1
  store i8 %35, ptr %10, align 1
  %36 = load i32, ptr %13, align 4
  store i32 %36, ptr %11, align 4
  br label %37

37:                                               ; preds = %44, %24
  %38 = load i32, ptr %11, align 4
  %39 = icmp sgt i32 %38, 0
  br i1 %39, label %40, label %47

40:                                               ; preds = %37
  %41 = load i8, ptr %10, align 1
  %42 = load ptr, ptr %9, align 8
  %43 = getelementptr inbounds i8, ptr %42, i32 1
  store ptr %43, ptr %9, align 8
  store i8 %41, ptr %42, align 1
  br label %44

44:                                               ; preds = %40
  %45 = load i32, ptr %11, align 4
  %46 = add nsw i32 %45, -1
  store i32 %46, ptr %11, align 4
  br label %37, !llvm.loop !19

47:                                               ; preds = %37
  br label %48

48:                                               ; preds = %47
  %49 = load i32, ptr %12, align 4
  %50 = add nsw i32 %49, 1
  store i32 %50, ptr %12, align 4
  br label %20, !llvm.loop !20

51:                                               ; preds = %20
  br label %52

52:                                               ; preds = %51, %4
  ret void
}

; Function Attrs: nounwind uwtable
define internal void @h2v1_downsample(ptr noundef %0, ptr noundef %1, ptr noundef %2, ptr noundef %3) #0 {
  %5 = alloca ptr, align 8
  %6 = alloca ptr, align 8
  %7 = alloca ptr, align 8
  %8 = alloca ptr, align 8
  %9 = alloca i32, align 4
  %10 = alloca i32, align 4
  %11 = alloca i32, align 4
  %12 = alloca i32, align 4
  %13 = alloca ptr, align 8
  %14 = alloca ptr, align 8
  %15 = alloca i32, align 4
  store ptr %0, ptr %5, align 8
  store ptr %1, ptr %6, align 8
  store ptr %2, ptr %7, align 8
  store ptr %3, ptr %8, align 8
  %16 = load ptr, ptr %5, align 8
  %17 = getelementptr inbounds %struct.jpeg_compress_struct, ptr %16, i32 0, i32 54
  %18 = load ptr, ptr %17, align 8
  %19 = getelementptr inbounds %struct.jpeg_comp_master, ptr %18, i32 0, i32 5
  %20 = load i32, ptr %19, align 8
  %21 = icmp ne i32 %20, 0
  %22 = select i1 %21, i32 1, i32 8
  store i32 %22, ptr %11, align 4
  %23 = load ptr, ptr %6, align 8
  %24 = getelementptr inbounds %struct.jpeg_component_info, ptr %23, i32 0, i32 7
  %25 = load i32, ptr %24, align 4
  %26 = load i32, ptr %11, align 4
  %27 = mul i32 %25, %26
  store i32 %27, ptr %12, align 4
  %28 = load ptr, ptr %7, align 8
  %29 = load ptr, ptr %5, align 8
  %30 = getelementptr inbounds %struct.jpeg_compress_struct, ptr %29, i32 0, i32 42
  %31 = load i32, ptr %30, align 4
  %32 = load ptr, ptr %5, align 8
  %33 = getelementptr inbounds %struct.jpeg_compress_struct, ptr %32, i32 0, i32 7
  %34 = load i32, ptr %33, align 8
  %35 = load i32, ptr %12, align 4
  %36 = mul i32 %35, 2
  call void @expand_right_edge(ptr noundef %28, i32 noundef %31, i32 noundef %34, i32 noundef %36)
  store i32 0, ptr %9, align 4
  br label %37

37:                                               ; preds = %82, %4
  %38 = load i32, ptr %9, align 4
  %39 = load ptr, ptr %6, align 8
  %40 = getelementptr inbounds %struct.jpeg_component_info, ptr %39, i32 0, i32 3
  %41 = load i32, ptr %40, align 4
  %42 = icmp slt i32 %38, %41
  br i1 %42, label %43, label %85

43:                                               ; preds = %37
  %44 = load ptr, ptr %8, align 8
  %45 = load i32, ptr %9, align 4
  %46 = sext i32 %45 to i64
  %47 = getelementptr inbounds ptr, ptr %44, i64 %46
  %48 = load ptr, ptr %47, align 8
  store ptr %48, ptr %14, align 8
  %49 = load ptr, ptr %7, align 8
  %50 = load i32, ptr %9, align 4
  %51 = sext i32 %50 to i64
  %52 = getelementptr inbounds ptr, ptr %49, i64 %51
  %53 = load ptr, ptr %52, align 8
  store ptr %53, ptr %13, align 8
  store i32 0, ptr %15, align 4
  store i32 0, ptr %10, align 4
  br label %54

54:                                               ; preds = %78, %43
  %55 = load i32, ptr %10, align 4
  %56 = load i32, ptr %12, align 4
  %57 = icmp ult i32 %55, %56
  br i1 %57, label %58, label %81

58:                                               ; preds = %54
  %59 = load ptr, ptr %13, align 8
  %60 = getelementptr inbounds i8, ptr %59, i64 0
  %61 = load i8, ptr %60, align 1
  %62 = zext i8 %61 to i32
  %63 = load ptr, ptr %13, align 8
  %64 = getelementptr inbounds i8, ptr %63, i64 1
  %65 = load i8, ptr %64, align 1
  %66 = zext i8 %65 to i32
  %67 = add nsw i32 %62, %66
  %68 = load i32, ptr %15, align 4
  %69 = add nsw i32 %67, %68
  %70 = ashr i32 %69, 1
  %71 = trunc i32 %70 to i8
  %72 = load ptr, ptr %14, align 8
  %73 = getelementptr inbounds i8, ptr %72, i32 1
  store ptr %73, ptr %14, align 8
  store i8 %71, ptr %72, align 1
  %74 = load i32, ptr %15, align 4
  %75 = xor i32 %74, 1
  store i32 %75, ptr %15, align 4
  %76 = load ptr, ptr %13, align 8
  %77 = getelementptr inbounds i8, ptr %76, i64 2
  store ptr %77, ptr %13, align 8
  br label %78

78:                                               ; preds = %58
  %79 = load i32, ptr %10, align 4
  %80 = add i32 %79, 1
  store i32 %80, ptr %10, align 4
  br label %54, !llvm.loop !9

81:                                               ; preds = %54
  br label %82

82:                                               ; preds = %81
  %83 = load i32, ptr %9, align 4
  %84 = add nsw i32 %83, 1
  store i32 %84, ptr %9, align 4
  br label %37, !llvm.loop !10

85:                                               ; preds = %37
  ret void
}