; Function Attrs: nofree norecurse nosync nounwind memory(readwrite, inaccessiblemem: none) uwtable
define internal void @h2v1_downsample(ptr nocapture noundef readonly %0, ptr nocapture noundef readonly %1, ptr nocapture noundef readonly %2, ptr nocapture noundef readonly %3) #2 {
  %5 = getelementptr inbounds i8, ptr %0, i64 432
  %6 = load ptr, ptr %5, align 8
  %7 = getelementptr inbounds i8, ptr %6, i64 32
  %8 = load i32, ptr %7, align 8
  %.not = icmp eq i32 %8, 0
  %9 = getelementptr inbounds i8, ptr %1, i64 28
  %10 = load i32, ptr %9, align 4
  %11 = select i1 %.not, i32 3, i32 0
  %12 = shl i32 %10, %11
  %13 = getelementptr inbounds i8, ptr %0, i64 316
  %14 = load i32, ptr %13, align 4
  %15 = getelementptr inbounds i8, ptr %0, i64 48
  %16 = load i32, ptr %15, align 8
  %17 = shl i32 %12, 1
  %18 = sub i32 %17, %16
  %19 = icmp sgt i32 %18, 0
  %20 = icmp sgt i32 %14, 0
  %or.cond.i = and i1 %20, %19
  br i1 %or.cond.i, label %.lr.ph20.i, label %expand_right_edge.exit

.lr.ph20.i:                                       ; preds = %4
  %21 = zext i32 %16 to i64
  %22 = xor i32 %16, -1
  %23 = add i32 %17, %22
  %24 = zext i32 %23 to i64
  %25 = add nuw nsw i64 %24, 1
  %wide.trip.count.i = zext nneg i32 %14 to i64
  br label %.lr.ph.us.i

.lr.ph.us.i:                                      ; preds = %.lr.ph.us.i, %.lr.ph20.i
  %indvars.iv.i = phi i64 [ 0, %.lr.ph20.i ], [ %indvars.iv.next.i, %.lr.ph.us.i ]
  %26 = getelementptr inbounds ptr, ptr %2, i64 %indvars.iv.i
  %27 = load ptr, ptr %26, align 8
  %28 = getelementptr inbounds i8, ptr %27, i64 %21
  %29 = getelementptr inbounds i8, ptr %28, i64 -1
  %30 = load i8, ptr %29, align 1
  tail call void @llvm.memset.p0.i64(ptr noundef nonnull align 1 dereferenceable(1) %28, i8 %30, i64 %25, i1 false)
  %indvars.iv.next.i = add nuw nsw i64 %indvars.iv.i, 1
  %exitcond.not.i = icmp eq i64 %indvars.iv.next.i, %wide.trip.count.i
  br i1 %exitcond.not.i, label %expand_right_edge.exit, label %.lr.ph.us.i, !llvm.loop !7

expand_right_edge.exit:                           ; preds = %.lr.ph.us.i, %4
  %31 = getelementptr inbounds i8, ptr %1, i64 12
  %32 = load i32, ptr %31, align 4
  %33 = icmp slt i32 %32, 1
  %.not33 = icmp eq i32 %12, 0
  %or.cond = or i1 %33, %.not33
  br i1 %or.cond, label %._crit_edge32, label %.lr.ph.us

.lr.ph.us:                                        ; preds = %expand_right_edge.exit, %._crit_edge.us
  %indvars.iv = phi i64 [ %indvars.iv.next, %._crit_edge.us ], [ 0, %expand_right_edge.exit ]
  %34 = getelementptr inbounds ptr, ptr %3, i64 %indvars.iv
  %35 = load ptr, ptr %34, align 8
  %36 = getelementptr inbounds ptr, ptr %2, i64 %indvars.iv
  %37 = load ptr, ptr %36, align 8
  br label %38

38:                                               ; preds = %.lr.ph.us, %38
  %.029.us = phi i32 [ 0, %.lr.ph.us ], [ %49, %38 ]
  %.02228.us = phi ptr [ %35, %.lr.ph.us ], [ %48, %38 ]
  %.02327.us = phi ptr [ %37, %.lr.ph.us ], [ %50, %38 ]
  %.02526.us = phi i32 [ 0, %.lr.ph.us ], [ %51, %38 ]
  %39 = load i8, ptr %.02327.us, align 1
  %40 = zext i8 %39 to i32
  %41 = getelementptr inbounds i8, ptr %.02327.us, i64 1
  %42 = load i8, ptr %41, align 1
  %43 = zext i8 %42 to i32
  %44 = add nuw nsw i32 %.029.us, %40
  %45 = add nuw nsw i32 %44, %43
  %46 = lshr i32 %45, 1
  %47 = trunc nuw i32 %46 to i8
  %48 = getelementptr inbounds i8, ptr %.02228.us, i64 1
  store i8 %47, ptr %.02228.us, align 1
  %49 = xor i32 %.029.us, 1
  %50 = getelementptr inbounds i8, ptr %.02327.us, i64 2
  %51 = add nuw i32 %.02526.us, 1
  %exitcond.not = icmp eq i32 %51, %12
  br i1 %exitcond.not, label %._crit_edge.us, label %38, !llvm.loop !10

._crit_edge.us:                                   ; preds = %38
  %indvars.iv.next = add nuw nsw i64 %indvars.iv, 1
  %52 = load i32, ptr %31, align 4
  %53 = sext i32 %52 to i64
  %54 = icmp slt i64 %indvars.iv.next, %53
  br i1 %54, label %.lr.ph.us, label %._crit_edge32, !llvm.loop !11

._crit_edge32:                                    ; preds = %._crit_edge.us, %expand_right_edge.exit
  ret void
}